target datalayout = "e-m:e-p270:32:32-p271:32:32-p272:64:64-i64:64-i128:128-f80:128-n8:16:32:64-S128"
target triple = "x86_64-pc-linux-gnu"

%class.rational = type { %class.mpq }
%class.mpq = type { %class.mpz, %class.mpz }
%class.mpz = type { i32, i8, ptr }
%class.ref_vector = type { %class.ref_vector_core }
%class.ref_vector_core = type { %class.ref_manager_wrapper, %class.ptr_vector }
%class.ref_manager_wrapper = type { ptr }
%class.ptr_vector = type { %class.vector.4 }
%class.vector.4 = type { ptr }
%class.pb_util = type { ptr, i32, %class.vector.289, %class.vector.290, %class.rational }
%class.vector.289 = type { ptr }
%class.vector.290 = type { ptr }
%class.svector.87 = type { %class.vector.88 }
%class.vector.88 = type { ptr }
%class.ptr_vector.164 = type { %class.vector.165 }
%class.vector.165 = type { ptr }
%class.svector.5 = type { %class.vector.6 }
%class.vector.6 = type { ptr }
%class.svector.195 = type { %class.vector.196 }
%class.vector.196 = type { ptr }
%class.uint_set = type { %class.svector.5 }
%class.svector.254 = type { %class.vector.255 }
%class.vector.255 = type { ptr }
%class.svector.11 = type { %class.vector.12 }
%class.vector.12 = type { ptr }
%"class.smt::theory_pb" = type { %"class.smt::theory.base", [3 x i8], %struct.theory_pb_params, %class.svector.291, %class.mpz_manager, %class._scoped_numeral_vector, %class.svector.5, %class.svector.5, %class.svector.195, %class.pb_util, %"struct.smt::theory_pb::stats", i32, i8, i32, i32, %class.uint_set, %class.svector.5, %class.svector.5, i32, %class.svector.195, i32, %class.svector.87, %class.svector.5, i32, %class.svector.195, %class.tracked_uint_set, %class.ref_vector, %class.svector.11, %class.ref_vector, %class.svector.11, %class.vector.295, %class.svector.5 }
%"class.smt::theory.base" = type <{ ptr, i32, [4 x i8], ptr, ptr, %class.ptr_vector.164, %class.svector.5, i32, i8 }>
%struct.theory_pb_params = type <{ i32, i8, [3 x i8] }>
%class.svector.291 = type { %class.vector.292 }
%class.vector.292 = type { ptr }
%class.mpz_manager = type { %class.small_object_allocator, %"class.std::recursive_mutex", [4 x i8], i32, %class.mpz, %class.mpz }
%class.small_object_allocator = type { [32 x ptr], [32 x ptr], i64 }
%"class.std::recursive_mutex" = type { %"class.std::__recursive_mutex_base" }
%"class.std::__recursive_mutex_base" = type { %union.pthread_mutex_t }
%union.pthread_mutex_t = type { %struct.__pthread_mutex_s }
%struct.__pthread_mutex_s = type { i32, i32, i32, i32, i32, i16, i16, %struct.__pthread_internal_list }
%struct.__pthread_internal_list = type { ptr, ptr }
%class._scoped_numeral_vector = type { %class.svector.293, ptr }
%class.svector.293 = type { %class.vector.294 }
%class.vector.294 = type { ptr }
%"struct.smt::theory_pb::stats" = type { i32, i32, i32, i32 }
%class.tracked_uint_set = type { %class.svector.254, %class.svector.5 }
%class.vector.295 = type { ptr }
%"struct.smt::theory_pb::var_info" = type { [2 x ptr], ptr, [2 x ptr], ptr }

; Function Attrs: mustprogress nounwind uwtable
define linkonce_odr hidden noundef i32 @_ZNK6vectorIN3smt9theory_pb8var_infoELb0EjE4sizeEv(ptr noundef nonnull align 8 dereferenceable(8) %0) #4 comdat align 2 {
  %2 = alloca i32, align 4
  %3 = alloca ptr, align 8
  store ptr %0, ptr %3, align 8, !tbaa !699
  %4 = load ptr, ptr %3, align 8
  %5 = getelementptr inbounds nuw %class.vector.292, ptr %4, i32 0, i32 0
  %6 = load ptr, ptr %5, align 8, !tbaa !729
  %7 = icmp eq ptr %6, null
  br i1 %7, label %8, label %9

8:                                                ; preds = %1
  store i32 0, ptr %2, align 4
  br label %14

9:                                                ; preds = %1
  %10 = getelementptr inbounds nuw %class.vector.292, ptr %4, i32 0, i32 0
  %11 = load ptr, ptr %10, align 8, !tbaa !729
  %12 = getelementptr inbounds i32, ptr %11, i64 -1
  %13 = load i32, ptr %12, align 4, !tbaa !8
  store i32 %13, ptr %2, align 4
  br label %14

14:                                               ; preds = %9, %8
  %15 = load i32, ptr %2, align 4
  ret i32 %15
}

; Function Attrs: mustprogress nounwind uwtable
define linkonce_odr hidden noundef ptr @_ZN6vectorIN3smt9theory_pb8var_infoELb0EjE3endEv(ptr noundef nonnull align 8 dereferenceable(8) %0) #4 comdat align 2 {
  %2 = alloca ptr, align 8
  store ptr %0, ptr %2, align 8, !tbaa !699
  %3 = load ptr, ptr %2, align 8
  %4 = getelementptr inbounds nuw %class.vector.292, ptr %3, i32 0, i32 0
  %5 = load ptr, ptr %4, align 8, !tbaa !729
  %6 = call noundef i32 @_ZNK6vectorIN3smt9theory_pb8var_infoELb0EjE4sizeEv(ptr noundef nonnull align 8 dereferenceable(8) %3)
  %7 = zext i32 %6 to i64
  %8 = getelementptr inbounds nuw %"struct.smt::theory_pb::var_info", ptr %5, i64 %7
  ret ptr %8
}

; Function Attrs: mustprogress nounwind uwtable
define linkonce_odr hidden noundef ptr @_ZN6vectorIN3smt9theory_pb8var_infoELb0EjE5beginEv(ptr noundef nonnull align 8 dereferenceable(8) %0) #4 comdat align 2 {
  %2 = alloca ptr, align 8
  store ptr %0, ptr %2, align 8, !tbaa !699
  %3 = load ptr, ptr %2, align 8
  %4 = getelementptr inbounds nuw %class.vector.292, ptr %3, i32 0, i32 0
  %5 = load ptr, ptr %4, align 8, !tbaa !729
  ret ptr %5
}

; Function Attrs: mustprogress uwtable
define hidden void @_ZN3smt9theory_pb20validate_final_checkEv(ptr noundef nonnull align 8 dereferenceable(968) %0) #6 align 2 {
  %2 = alloca ptr, align 8
  %3 = alloca ptr, align 8
  %4 = alloca ptr, align 8
  %5 = alloca ptr, align 8
  %6 = alloca ptr, align 8
  store ptr %0, ptr %2, align 8, !tbaa !624
  %7 = load ptr, ptr %2, align 8
  call void @llvm.lifetime.start.p0(i64 8, ptr %3) #3
  %8 = getelementptr inbounds nuw %"class.smt::theory_pb", ptr %7, i32 0, i32 3
  store ptr %8, ptr %3, align 8, !tbaa !676
  call void @llvm.lifetime.start.p0(i64 8, ptr %4) #3
  %9 = load ptr, ptr %3, align 8, !tbaa !676
  %10 = call noundef ptr @_ZN6vectorIN3smt9theory_pb8var_infoELb0EjE5beginEv(ptr noundef nonnull align 8 dereferenceable(8) %9)
  store ptr %10, ptr %4, align 8, !tbaa !784
  call void @llvm.lifetime.start.p0(i64 8, ptr %5) #3
  %11 = load ptr, ptr %3, align 8, !tbaa !676
  %12 = call noundef ptr @_ZN6vectorIN3smt9theory_pb8var_infoELb0EjE3endEv(ptr noundef nonnull align 8 dereferenceable(8) %11)
  store ptr %12, ptr %5, align 8, !tbaa !784
  br label %13

13:                                               ; preds = %38, %1
  %14 = load ptr, ptr %4, align 8, !tbaa !784
  %15 = load ptr, ptr %5, align 8, !tbaa !784
  %16 = icmp ne ptr %14, %15
  br i1 %16, label %18, label %17

17:                                               ; preds = %13
  call void @llvm.lifetime.end.p0(i64 8, ptr %5) #3
  call void @llvm.lifetime.end.p0(i64 8, ptr %4) #3
  call void @llvm.lifetime.end.p0(i64 8, ptr %3) #3
  br label %41

18:                                               ; preds = %13
  call void @llvm.lifetime.start.p0(i64 8, ptr %6) #3
  %19 = load ptr, ptr %4, align 8, !tbaa !784
  store ptr %19, ptr %6, align 8, !tbaa !784
  %20 = load ptr, ptr %6, align 8, !tbaa !784
  %21 = getelementptr inbounds nuw %"struct.smt::theory_pb::var_info", ptr %20, i32 0, i32 1
  %22 = load ptr, ptr %21, align 8, !tbaa !708
  %23 = icmp ne ptr %22, null
  br i1 %23, label %24, label %28

24:                                               ; preds = %18
  %25 = load ptr, ptr %6, align 8, !tbaa !784
  %26 = getelementptr inbounds nuw %"struct.smt::theory_pb::var_info", ptr %25, i32 0, i32 1
  %27 = load ptr, ptr %26, align 8, !tbaa !708
  call void @_ZN3smt9theory_pb20validate_final_checkERNS0_4ineqE(ptr noundef nonnull align 8 dereferenceable(968) %7, ptr noundef nonnull align 8 dereferenceable(212) %27)
  br label %28

28:                                               ; preds = %24, %18
  %29 = load ptr, ptr %6, align 8, !tbaa !784
  %30 = getelementptr inbounds nuw %"struct.smt::theory_pb::var_info", ptr %29, i32 0, i32 3
  %31 = load ptr, ptr %30, align 8, !tbaa !712
  %32 = icmp ne ptr %31, null
  br i1 %32, label %33, label %37

33:                                               ; preds = %28
  %34 = load ptr, ptr %6, align 8, !tbaa !784
  %35 = getelementptr inbounds nuw %"struct.smt::theory_pb::var_info", ptr %34, i32 0, i32 3
  %36 = load ptr, ptr %35, align 8, !tbaa !712
  call void @_ZN3smt9theory_pb20validate_final_checkERNS0_4cardE(ptr noundef nonnull align 8 dereferenceable(968) %7, ptr noundef nonnull align 8 dereferenceable(29) %36)
  br label %37

37:                                               ; preds = %33, %28
  call void @llvm.lifetime.end.p0(i64 8, ptr %6) #3
  br label %38

38:                                               ; preds = %37
  %39 = load ptr, ptr %4, align 8, !tbaa !784
  %40 = getelementptr inbounds nuw %"struct.smt::theory_pb::var_info", ptr %39, i32 1
  store ptr %40, ptr %4, align 8, !tbaa !784
  br label %13

41:                                               ; preds = %17
  ret void
}