; Function Attrs: mustprogress uwtable
define hidden void @_ZN3smt9theory_pb20validate_final_checkEv(ptr noundef nonnull readonly align 8 captures(none) dereferenceable(968) %0) local_unnamed_addr #4 align 2 {
  %2 = getelementptr inbounds nuw i8, ptr %0, i64 64
  %3 = load ptr, ptr %2, align 8, !tbaa !700
  %4 = icmp eq ptr %3, null
  br i1 %4, label %._crit_edge, label %_ZN6vectorIN3smt9theory_pb8var_infoELb0EjE3endEv.exit

_ZN6vectorIN3smt9theory_pb8var_infoELb0EjE3endEv.exit: ; preds = %1
  %5 = getelementptr inbounds i8, ptr %3, i64 -4
  %6 = load i32, ptr %5, align 4, !tbaa !9
  %7 = zext i32 %6 to i64
  %8 = getelementptr inbounds nuw %"struct.smt::theory_pb::var_info", ptr %3, i64 %7
  %.not15 = icmp eq i32 %6, 0
  br i1 %.not15, label %._crit_edge, label %.lr.ph

._crit_edge:                                      ; preds = %16, %1, %_ZN6vectorIN3smt9theory_pb8var_infoELb0EjE3endEv.exit
  ret void

.lr.ph:                                           ; preds = %_ZN6vectorIN3smt9theory_pb8var_infoELb0EjE3endEv.exit, %16
  %.016 = phi ptr [ %17, %16 ], [ %3, %_ZN6vectorIN3smt9theory_pb8var_infoELb0EjE3endEv.exit ]
  %9 = getelementptr inbounds nuw i8, ptr %.016, i64 16
  %10 = load ptr, ptr %9, align 8, !tbaa !773
  %.not13 = icmp eq ptr %10, null
  br i1 %.not13, label %12, label %11

11:                                               ; preds = %.lr.ph
  tail call void @_ZN3smt9theory_pb20validate_final_checkERNS0_4ineqE(ptr noundef nonnull align 8 dereferenceable(968) %0, ptr noundef nonnull align 8 dereferenceable(212) %10)
  br label %12

12:                                               ; preds = %11, %.lr.ph
  %13 = getelementptr inbounds nuw i8, ptr %.016, i64 40
  %14 = load ptr, ptr %13, align 8, !tbaa !780
  %.not14 = icmp eq ptr %14, null
  br i1 %.not14, label %16, label %15

15:                                               ; preds = %12
  tail call void @_ZN3smt9theory_pb20validate_final_checkERNS0_4cardE(ptr noundef nonnull align 8 dereferenceable(968) %0, ptr noundef nonnull align 8 dereferenceable(29) %14)
  br label %16

16:                                               ; preds = %15, %12
  %17 = getelementptr inbounds nuw i8, ptr %.016, i64 48
  %.not = icmp eq ptr %17, %8
  br i1 %.not, label %._crit_edge, label %.lr.ph
}